target datalayout = "e-m:e-p270:32:32-p271:32:32-p272:64:64-i64:64-i128:128-f80:128-n8:16:32:64-S128"
target triple = "x86_64-pc-linux-gnu"

%struct.user = type { ptr, i32, ptr, ptr, ptr }
%struct.listNode = type { ptr, ptr, ptr }
%struct.listIter = type { ptr, i32 }

; Function Attrs: nounwind uwtable
define dso_local i32 @ACLUserCheckKeyPerm(ptr noundef %0, ptr noundef %1, i32 noundef %2, i32 noundef %3) #0 {
  %5 = alloca i32, align 4
  %6 = alloca ptr, align 8
  %7 = alloca ptr, align 8
  %8 = alloca i32, align 4
  %9 = alloca i32, align 4
  %10 = alloca %struct.listIter, align 8
  %11 = alloca ptr, align 8
  %12 = alloca i32, align 4
  %13 = alloca ptr, align 8
  store ptr %0, ptr %6, align 8, !tbaa !32
  store ptr %1, ptr %7, align 8, !tbaa !5
  store i32 %2, ptr %8, align 4, !tbaa !17
  store i32 %3, ptr %9, align 4, !tbaa !17
  call void @llvm.lifetime.start.p0(i64 16, ptr %10) #14
  call void @llvm.lifetime.start.p0(i64 8, ptr %11) #14
  %14 = load ptr, ptr %6, align 8, !tbaa !32
  %15 = icmp eq ptr %14, null
  br i1 %15, label %16, label %17

16:                                               ; preds = %4
  store i32 0, ptr %5, align 4
  store i32 1, ptr %12, align 4
  br label %40

17:                                               ; preds = %4
  %18 = load ptr, ptr %6, align 8, !tbaa !32
  %19 = getelementptr inbounds nuw %struct.user, ptr %18, i32 0, i32 3
  %20 = load ptr, ptr %19, align 8, !tbaa !81
  call void @listRewind(ptr noundef %20, ptr noundef %10)
  br label %21

21:                                               ; preds = %38, %17
  %22 = call ptr @listNext(ptr noundef %10)
  store ptr %22, ptr %11, align 8, !tbaa !94
  %23 = icmp ne ptr %22, null
  br i1 %23, label %24, label %39

24:                                               ; preds = %21
  call void @llvm.lifetime.start.p0(i64 8, ptr %13) #14
  %25 = load ptr, ptr %11, align 8, !tbaa !94
  %26 = getelementptr inbounds nuw %struct.listNode, ptr %25, i32 0, i32 2
  %27 = load ptr, ptr %26, align 8, !tbaa !86
  store ptr %27, ptr %13, align 8, !tbaa !32
  %28 = load ptr, ptr %13, align 8, !tbaa !32
  %29 = load ptr, ptr %7, align 8, !tbaa !5
  %30 = load i32, ptr %8, align 4, !tbaa !17
  %31 = load i32, ptr %9, align 4, !tbaa !17
  %32 = call i32 @ACLSelectorCheckKey(ptr noundef %28, ptr noundef %29, i32 noundef %30, i32 noundef %31)
  %33 = icmp eq i32 %32, 0
  br i1 %33, label %34, label %35

34:                                               ; preds = %24
  store i32 0, ptr %5, align 4
  store i32 1, ptr %12, align 4
  br label %36

35:                                               ; preds = %24
  store i32 0, ptr %12, align 4
  br label %36

36:                                               ; preds = %35, %34
  call void @llvm.lifetime.end.p0(i64 8, ptr %13) #14
  %37 = load i32, ptr %12, align 4
  switch i32 %37, label %40 [
    i32 0, label %38
  ]

38:                                               ; preds = %36
  br label %21, !llvm.loop !179

39:                                               ; preds = %21
  store i32 2, ptr %5, align 4
  store i32 1, ptr %12, align 4
  br label %40

40:                                               ; preds = %39, %36, %16
  call void @llvm.lifetime.end.p0(i64 8, ptr %11) #14
  call void @llvm.lifetime.end.p0(i64 16, ptr %10) #14
  %41 = load i32, ptr %5, align 4
  ret i32 %41
}