; Function Attrs: nounwind uwtable
define dso_local range(i32 0, 3) i32 @ACLUserCheckKeyPerm(ptr noundef readonly captures(address_is_null) %0, ptr noundef %1, i32 noundef %2, i32 noundef %3) local_unnamed_addr #0 {
  %5 = alloca %struct.listIter, align 8
  call void @llvm.lifetime.start.p0(i64 16, ptr nonnull %5) #25
  %6 = icmp eq ptr %0, null
  br i1 %6, label %.loopexit, label %7

7:                                                ; preds = %4
  %8 = getelementptr inbounds nuw i8, ptr %0, i64 24
  %9 = load ptr, ptr %8, align 8, !tbaa !79
  call void @listRewind(ptr noundef %9, ptr noundef nonnull %5) #25
  br label %10

10:                                               ; preds = %12, %7
  %11 = call ptr @listNext(ptr noundef nonnull %5) #25
  %.not = icmp eq ptr %11, null
  br i1 %.not, label %.loopexit, label %12

12:                                               ; preds = %10
  %13 = getelementptr inbounds nuw i8, ptr %11, i64 16
  %14 = load ptr, ptr %13, align 8, !tbaa !85
  %15 = call fastcc i32 @ACLSelectorCheckKey(ptr noundef %14, ptr noundef %1, i32 noundef %2, i32 noundef %3)
  %.not11 = icmp eq i32 %15, 0
  br i1 %.not11, label %.loopexit, label %10, !llvm.loop !174

.loopexit:                                        ; preds = %10, %12, %4
  %.0 = phi i32 [ 0, %4 ], [ 2, %10 ], [ 0, %12 ]
  call void @llvm.lifetime.end.p0(i64 16, ptr nonnull %5) #25
  ret i32 %.0
}